; ModuleID = '10/1692.c'
source_filename = "10/1692.c"
target datalayout = "e-m:e-p270:32:32-p271:32:32-p272:64:64-i64:64-f80:128-n8:16:32:64-S128"
target triple = "x86_64-pc-linux-gnu"

@max = dso_local global i32 0, align 4
@n = dso_local global i32 0, align 4
@line = dso_local global i32 0, align 4
@f = dso_local global [30 x i32] zeroinitializer, align 16
@b = dso_local global [30 x i32] zeroinitializer, align 16
@.str = private unnamed_addr constant [3 x i8] c"%d\00", align 1
@a = common dso_local global [30 x i32] zeroinitializer, align 16
@.str.1 = private unnamed_addr constant [2 x i8] c"\0A\00", align 1

; Function Attrs: noinline nounwind uwtable
define dso_local void @main() #0 {
  %1 = alloca i32, align 4
  %2 = alloca i32, align 4
  %3 = alloca i32, align 4
  store i32 0, i32* %3, align 4
  %4 = call i32 (i8*, ...) @__isoc99_scanf(i8* getelementptr inbounds ([3 x i8], [3 x i8]* @.str, i64 0, i64 0), i32* %1)
  store i32 0, i32* %2, align 4
  br label %5

5:                                                ; preds = %26, %0
  %6 = load i32, i32* %2, align 4
  %7 = load i32, i32* %1, align 4
  %8 = icmp slt i32 %6, %7
  br i1 %8, label %9, label %29

9:                                                ; preds = %5
  %10 = load i32, i32* %2, align 4
  %11 = sext i32 %10 to i64
  %12 = getelementptr inbounds [30 x i32], [30 x i32]* @a, i64 0, i64 %11
  %13 = call i32 (i8*, ...) @__isoc99_scanf(i8* getelementptr inbounds ([3 x i8], [3 x i8]* @.str, i64 0, i64 0), i32* %12)
  %14 = load i32, i32* @line, align 4
  %15 = load i32, i32* %2, align 4
  %16 = sext i32 %15 to i64
  %17 = getelementptr inbounds [30 x i32], [30 x i32]* @a, i64 0, i64 %16
  %18 = load i32, i32* %17, align 4
  %19 = icmp slt i32 %14, %18
  br i1 %19, label %20, label %25

20:                                               ; preds = %9
  %21 = load i32, i32* %2, align 4
  %22 = sext i32 %21 to i64
  %23 = getelementptr inbounds [30 x i32], [30 x i32]* @a, i64 0, i64 %22
  %24 = load i32, i32* %23, align 4
  store i32 %24, i32* @line, align 4
  br label %25

25:                                               ; preds = %20, %9
  br label %26

26:                                               ; preds = %25
  %27 = load i32, i32* %2, align 4
  %28 = add nsw i32 %27, 1
  store i32 %28, i32* %2, align 4
  br label %5

29:                                               ; preds = %5
  %30 = load i32, i32* %1, align 4
  call void @missile(i32 0, i32 %30)
  %31 = load i32, i32* @max, align 4
  %32 = call i32 (i8*, ...) @printf(i8* getelementptr inbounds ([3 x i8], [3 x i8]* @.str, i64 0, i64 0), i32 %31)
  ret void
}

declare dso_local i32 @__isoc99_scanf(i8*, ...) #1

; Function Attrs: noinline nounwind uwtable
define dso_local void @missile(i32 %0, i32 %1) #0 {
  %3 = alloca i32, align 4
  %4 = alloca i32, align 4
  %5 = alloca i32, align 4
  store i32 %0, i32* %3, align 4
  store i32 %1, i32* %4, align 4
  store i32 0, i32* %5, align 4
  br label %6

6:                                                ; preds = %90, %2
  %7 = load i32, i32* %5, align 4
  %8 = icmp slt i32 %7, 2
  br i1 %8, label %9, label %93

9:                                                ; preds = %6
  %10 = load i32, i32* %5, align 4
  %11 = icmp eq i32 %10, 0
  br i1 %11, label %12, label %21

12:                                               ; preds = %9
  %13 = load i32, i32* %3, align 4
  %14 = load i32, i32* %4, align 4
  %15 = sub nsw i32 %14, 1
  %16 = icmp ne i32 %13, %15
  br i1 %16, label %17, label %21

17:                                               ; preds = %12
  %18 = load i32, i32* %3, align 4
  %19 = add nsw i32 %18, 1
  %20 = load i32, i32* %4, align 4
  call void @missile(i32 %19, i32 %20)
  br label %89

21:                                               ; preds = %12, %9
  %22 = load i32, i32* %3, align 4
  %23 = sext i32 %22 to i64
  %24 = getelementptr inbounds [30 x i32], [30 x i32]* @a, i64 0, i64 %23
  %25 = load i32, i32* %24, align 4
  %26 = load i32, i32* @line, align 4
  %27 = icmp sle i32 %25, %26
  br i1 %27, label %33, label %28

28:                                               ; preds = %21
  %29 = load i32, i32* %3, align 4
  %30 = load i32, i32* %4, align 4
  %31 = sub nsw i32 %30, 1
  %32 = icmp eq i32 %29, %31
  br i1 %32, label %33, label %88

33:                                               ; preds = %28, %21
  %34 = load i32, i32* %3, align 4
  %35 = sext i32 %34 to i64
  %36 = getelementptr inbounds [30 x i32], [30 x i32]* @a, i64 0, i64 %35
  %37 = load i32, i32* %36, align 4
  %38 = load i32, i32* @line, align 4
  %39 = icmp sle i32 %37, %38
  br i1 %39, label %40, label %54

40:                                               ; preds = %33
  %41 = load i32, i32* @line, align 4
  %42 = load i32, i32* %3, align 4
  %43 = sext i32 %42 to i64
  %44 = getelementptr inbounds [30 x i32], [30 x i32]* @b, i64 0, i64 %43
  store i32 %41, i32* %44, align 4
  %45 = load i32, i32* %3, align 4
  %46 = sext i32 %45 to i64
  %47 = getelementptr inbounds [30 x i32], [30 x i32]* @a, i64 0, i64 %46
  %48 = load i32, i32* %47, align 4
  store i32 %48, i32* @line, align 4
  %49 = load i32, i32* @n, align 4
  %50 = add nsw i32 %49, 1
  store i32 %50, i32* @n, align 4
  %51 = load i32, i32* %3, align 4
  %52 = sext i32 %51 to i64
  %53 = getelementptr inbounds [30 x i32], [30 x i32]* @f, i64 0, i64 %52
  store i32 1, i32* %53, align 4
  br label %54

54:                                               ; preds = %40, %33
  %55 = load i32, i32* %3, align 4
  %56 = load i32, i32* %4, align 4
  %57 = sub nsw i32 %56, 1
  %58 = icmp eq i32 %55, %57
  br i1 %58, label %59, label %67

59:                                               ; preds = %54
  %60 = load i32, i32* @max, align 4
  %61 = load i32, i32* @n, align 4
  %62 = icmp slt i32 %60, %61
  br i1 %62, label %63, label %65

63:                                               ; preds = %59
  %64 = load i32, i32* @n, align 4
  store i32 %64, i32* @max, align 4
  br label %65

65:                                               ; preds = %63, %59
  %66 = call i32 (i8*, ...) @printf(i8* getelementptr inbounds ([2 x i8], [2 x i8]* @.str.1, i64 0, i64 0))
  br label %71

67:                                               ; preds = %54
  %68 = load i32, i32* %3, align 4
  %69 = add nsw i32 %68, 1
  %70 = load i32, i32* %4, align 4
  call void @missile(i32 %69, i32 %70)
  br label %71

71:                                               ; preds = %67, %65
  %72 = load i32, i32* %3, align 4
  %73 = sext i32 %72 to i64
  %74 = getelementptr inbounds [30 x i32], [30 x i32]* @f, i64 0, i64 %73
  %75 = load i32, i32* %74, align 4
  %76 = icmp eq i32 %75, 1
  br i1 %76, label %77, label %87

77:                                               ; preds = %71
  %78 = load i32, i32* @n, align 4
  %79 = add nsw i32 %78, -1
  store i32 %79, i32* @n, align 4
  %80 = load i32, i32* %3, align 4
  %81 = sext i32 %80 to i64
  %82 = getelementptr inbounds [30 x i32], [30 x i32]* @b, i64 0, i64 %81
  %83 = load i32, i32* %82, align 4
  store i32 %83, i32* @line, align 4
  %84 = load i32, i32* %3, align 4
  %85 = sext i32 %84 to i64
  %86 = getelementptr inbounds [30 x i32], [30 x i32]* @f, i64 0, i64 %85
  store i32 0, i32* %86, align 4
  br label %87

87:                                               ; preds = %77, %71
  br label %88

88:                                               ; preds = %87, %28
  br label %89

89:                                               ; preds = %88, %17
  br label %90

90:                                               ; preds = %89
  %91 = load i32, i32* %5, align 4
  %92 = add nsw i32 %91, 1
  store i32 %92, i32* %5, align 4
  br label %6

93:                                               ; preds = %6
  ret void
}

declare dso_local i32 @printf(i8*, ...) #1


!llvm.module.flags = !{!0}
!llvm.ident = !{!1}

!0 = !{i32 1, !"wchar_size", i32 4}
!1 = !{!"clang version 10.0.0-4ubuntu1 "}
